	.file	"lab.cpp"
	.text
	.globl	__Z4facti
	.def	__Z4facti;	.scl	2;	.type	32;	.endef
__Z4facti:
LFB12:
	.cfi_startproc
	pushl	%ebp
	.cfi_def_cfa_offset 8
	.cfi_offset 5, -8
	movl	%esp, %ebp
	.cfi_def_cfa_register 5
	subl	$24, %esp
	cmpl	$0, 8(%ebp)
	jne	L2
	movl	$1, %eax
	jmp	L3
L2:
	movl	8(%ebp), %eax
	subl	$1, %eax
	movl	%eax, (%esp)
	call	__Z4facti
	imull	8(%ebp), %eax
L3:
	leave
	.cfi_restore 5
	.cfi_def_cfa 4, 4
	ret
	.cfi_endproc
LFE12:
	.def	___main;	.scl	2;	.type	32;	.endef
	.section .rdata,"dr"
LC0:
	.ascii "Enter a number n\12 \0"
LC1:
	.ascii "%d\0"
	.align 4
LC2:
	.ascii "The factorial of the number %d is \12\0"
	.text
	.globl	_main
	.def	_main;	.scl	2;	.type	32;	.endef
_main:
LFB13:
	.cfi_startproc
	pushl	%ebp
	.cfi_def_cfa_offset 8
	.cfi_offset 5, -8
	movl	%esp, %ebp
	.cfi_def_cfa_register 5
	andl	$-16, %esp
	subl	$32, %esp
	call	___main
	movl	$LC0, (%esp)
	call	_printf
	leal	28(%esp), %eax
	movl	%eax, 4(%esp)
	movl	$LC1, (%esp)
	call	_scanf
	movl	28(%esp), %eax
	movl	%eax, (%esp)
	call	__Z4facti
	movl	%eax, 4(%esp)
	movl	$LC2, (%esp)
	call	_printf
	movl	$0, %eax
	leave
	.cfi_restore 5
	.cfi_def_cfa 4, 4
	ret
	.cfi_endproc
LFE13:
	.ident	"GCC: (MinGW.org GCC-6.3.0-1) 6.3.0"
	.def	_printf;	.scl	2;	.type	32;	.endef
	.def	_scanf;	.scl	2;	.type	32;	.endef
